ARM GAS  C:\Users\guest\AppData\Local\Temp\ccKYxLKA.s 			page 1


   1              		.syntax unified
   2              		.cpu cortex-m3
   3              		.fpu softvfp
   4              		.eabi_attribute 20, 1
   5              		.eabi_attribute 21, 1
   6              		.eabi_attribute 23, 3
   7              		.eabi_attribute 24, 1
   8              		.eabi_attribute 25, 1
   9              		.eabi_attribute 26, 1
  10              		.eabi_attribute 30, 1
  11              		.eabi_attribute 34, 1
  12              		.eabi_attribute 18, 4
  13              		.thumb
  14              		.syntax unified
  15              		.file	"main.c"
  16              		.text
  17              	.Ltext0:
  18              		.cfi_sections	.debug_frame
  19              		.section	.text.SetSpeed,"ax",%progbits
  20              		.align	2
  21              		.global	SetSpeed
  22              		.thumb
  23              		.thumb_func
  24              		.type	SetSpeed, %function
  25              	SetSpeed:
  26              	.LFB63:
  27              		.file 1 "main.c"
   1:main.c        **** /* ========================================
   2:main.c        ****  *
   3:main.c        ****  * Copyright YOUR COMPANY, THE YEAR
   4:main.c        ****  * All Rights Reserved
   5:main.c        ****  * UNPUBLISHED, LICENSED SOFTWARE.
   6:main.c        ****  *
   7:main.c        ****  * CONFIDENTIAL AND PROPRIETARY INFORMATION
   8:main.c        ****  * WHICH IS THE PROPERTY OF your company.
   9:main.c        ****  *
  10:main.c        ****  * ========================================
  11:main.c        **** */
  12:main.c        **** #include "project.h"
  13:main.c        **** 
  14:main.c        **** //create states
  15:main.c        **** typedef enum{
  16:main.c        ****     idle_state,
  17:main.c        ****     go_straight,
  18:main.c        ****     turn_left,
  19:main.c        ****     turn_right,
  20:main.c        **** }state;
  21:main.c        **** 
  22:main.c        **** //create events
  23:main.c        **** typedef enum{
  24:main.c        ****     no_line,
  25:main.c        ****     line_on_right,
  26:main.c        ****     line_on_left,
  27:main.c        **** }event;
  28:main.c        **** 
  29:main.c        **** void SetSpeed(int16 left, int16 right){
  28              		.loc 1 29 0
ARM GAS  C:\Users\guest\AppData\Local\Temp\ccKYxLKA.s 			page 2


  29              		.cfi_startproc
  30              		@ args = 0, pretend = 0, frame = 0
  31              		@ frame_needed = 0, uses_anonymous_args = 0
  32              	.LVL0:
  33 0000 38B5     		push	{r3, r4, r5, lr}
  34              		.cfi_def_cfa_offset 16
  35              		.cfi_offset 3, -16
  36              		.cfi_offset 4, -12
  37              		.cfi_offset 5, -8
  38              		.cfi_offset 14, -4
  39 0002 0C46     		mov	r4, r1
  40              	.LVL1:
  30:main.c        ****     int8 killControl = 0;
  31:main.c        ****     if(left<0){
  41              		.loc 1 31 0
  42 0004 051E     		subs	r5, r0, #0
  43 0006 07DA     		bge	.L2
  32:main.c        ****         LEFT_MOT_PWM_WriteCompare(-1*left);
  44              		.loc 1 32 0
  45 0008 6842     		negs	r0, r5
  46              	.LVL2:
  47 000a C0B2     		uxtb	r0, r0
  48 000c FFF7FEFF 		bl	LEFT_MOT_PWM_WriteCompare
  49              	.LVL3:
  33:main.c        ****         LEFT_MOT_DIR_Write(1);
  50              		.loc 1 33 0
  51 0010 0120     		movs	r0, #1
  52 0012 FFF7FEFF 		bl	LEFT_MOT_DIR_Write
  53              	.LVL4:
  54 0016 05E0     		b	.L3
  55              	.LVL5:
  56              	.L2:
  34:main.c        ****     }else{
  35:main.c        ****         LEFT_MOT_PWM_WriteCompare(left);
  57              		.loc 1 35 0
  58 0018 E8B2     		uxtb	r0, r5
  59              	.LVL6:
  60 001a FFF7FEFF 		bl	LEFT_MOT_PWM_WriteCompare
  61              	.LVL7:
  36:main.c        ****         LEFT_MOT_DIR_Write(0);
  62              		.loc 1 36 0
  63 001e 0020     		movs	r0, #0
  64 0020 FFF7FEFF 		bl	LEFT_MOT_DIR_Write
  65              	.LVL8:
  66              	.L3:
  37:main.c        ****     }
  38:main.c        ****     if(right<0){
  67              		.loc 1 38 0
  68 0024 002C     		cmp	r4, #0
  69 0026 07DA     		bge	.L4
  39:main.c        ****         RIGHT_MOT_PWM_WriteCompare(-1*right);
  70              		.loc 1 39 0
  71 0028 6042     		negs	r0, r4
  72 002a C0B2     		uxtb	r0, r0
  73 002c FFF7FEFF 		bl	RIGHT_MOT_PWM_WriteCompare
  74              	.LVL9:
  40:main.c        ****         RIGHT_MOT_DIR_Write(1);
ARM GAS  C:\Users\guest\AppData\Local\Temp\ccKYxLKA.s 			page 3


  75              		.loc 1 40 0
  76 0030 0120     		movs	r0, #1
  77 0032 FFF7FEFF 		bl	RIGHT_MOT_DIR_Write
  78              	.LVL10:
  79 0036 05E0     		b	.L5
  80              	.L4:
  41:main.c        ****     }else{
  42:main.c        ****         RIGHT_MOT_PWM_WriteCompare(right);
  81              		.loc 1 42 0
  82 0038 E0B2     		uxtb	r0, r4
  83 003a FFF7FEFF 		bl	RIGHT_MOT_PWM_WriteCompare
  84              	.LVL11:
  43:main.c        ****         RIGHT_MOT_DIR_Write(0);
  85              		.loc 1 43 0
  86 003e 0020     		movs	r0, #0
  87 0040 FFF7FEFF 		bl	RIGHT_MOT_DIR_Write
  88              	.LVL12:
  89              	.L5:
  44:main.c        ****     }
  45:main.c        ****     if(left==0){
  90              		.loc 1 45 0
  91 0044 0DB1     		cbz	r5, .L8
  30:main.c        ****     if(left<0){
  92              		.loc 1 30 0
  93 0046 0020     		movs	r0, #0
  94 0048 00E0     		b	.L6
  95              	.L8:
  46:main.c        ****         killControl = 1;
  96              		.loc 1 46 0
  97 004a 0120     		movs	r0, #1
  98              	.L6:
  99              	.LVL13:
  47:main.c        ****     }
  48:main.c        ****     if(right==0){
 100              		.loc 1 48 0
 101 004c 0CB9     		cbnz	r4, .L7
  49:main.c        ****         killControl = killControl+2;
 102              		.loc 1 49 0
 103 004e 0230     		adds	r0, r0, #2
 104              	.LVL14:
 105 0050 40B2     		sxtb	r0, r0
 106              	.LVL15:
 107              	.L7:
  50:main.c        ****     }
  51:main.c        ****     Reg_PWM_Write(killControl);
 108              		.loc 1 51 0
 109 0052 C0B2     		uxtb	r0, r0
 110 0054 FFF7FEFF 		bl	Reg_PWM_Write
 111              	.LVL16:
 112 0058 38BD     		pop	{r3, r4, r5, pc}
 113              		.cfi_endproc
 114              	.LFE63:
 115              		.size	SetSpeed, .-SetSpeed
 116 005a 00BF     		.section	.text.SetEvent,"ax",%progbits
 117              		.align	2
 118              		.global	SetEvent
 119              		.thumb
ARM GAS  C:\Users\guest\AppData\Local\Temp\ccKYxLKA.s 			page 4


 120              		.thumb_func
 121              		.type	SetEvent, %function
 122              	SetEvent:
 123              	.LFB64:
  52:main.c        **** }
  53:main.c        **** 
  54:main.c        **** event SetEvent(int16 left_IR, int16 right_IR){
 124              		.loc 1 54 0
 125              		.cfi_startproc
 126              		@ args = 0, pretend = 0, frame = 0
 127              		@ frame_needed = 0, uses_anonymous_args = 0
 128              		@ link register save eliminated.
 129              	.LVL17:
  55:main.c        ****     /*if((left_IR == 0 && right_IR == 0) || (left_IR == 1 && right_IR == 1)){
  56:main.c        ****         return no_line;
  57:main.c        ****     }*/
  58:main.c        ****     if(right_IR == 1){
 130              		.loc 1 58 0
 131 0000 0129     		cmp	r1, #1
 132 0002 03D0     		beq	.L12
  59:main.c        ****         return line_on_right;
  60:main.c        ****     }
  61:main.c        ****     if(left_IR == 1){
 133              		.loc 1 61 0
 134 0004 0128     		cmp	r0, #1
 135 0006 03D1     		bne	.L13
  62:main.c        ****         return line_on_left;
 136              		.loc 1 62 0
 137 0008 0220     		movs	r0, #2
 138              	.LVL18:
 139 000a 7047     		bx	lr
 140              	.LVL19:
 141              	.L12:
  59:main.c        ****         return line_on_right;
 142              		.loc 1 59 0
 143 000c 0120     		movs	r0, #1
 144              	.LVL20:
 145 000e 7047     		bx	lr
 146              	.LVL21:
 147              	.L13:
  63:main.c        ****     }else{
  64:main.c        ****         return no_line;
 148              		.loc 1 64 0
 149 0010 0020     		movs	r0, #0
 150              	.LVL22:
  65:main.c        ****     }
  66:main.c        **** }
 151              		.loc 1 66 0
 152 0012 7047     		bx	lr
 153              		.cfi_endproc
 154              	.LFE64:
 155              		.size	SetEvent, .-SetEvent
 156              		.section	.text.SetState,"ax",%progbits
 157              		.align	2
 158              		.global	SetState
 159              		.thumb
 160              		.thumb_func
ARM GAS  C:\Users\guest\AppData\Local\Temp\ccKYxLKA.s 			page 5


 161              		.type	SetState, %function
 162              	SetState:
 163              	.LFB65:
  67:main.c        ****     
  68:main.c        **** state SetState(event event){
 164              		.loc 1 68 0
 165              		.cfi_startproc
 166              		@ args = 0, pretend = 0, frame = 0
 167              		@ frame_needed = 0, uses_anonymous_args = 0
 168              		@ link register save eliminated.
 169              	.LVL23:
  69:main.c        ****     if(event == no_line){
 170              		.loc 1 69 0
 171 0000 28B1     		cbz	r0, .L16
  70:main.c        ****         return go_straight;
  71:main.c        ****     }
  72:main.c        ****     if(event == line_on_right){
 172              		.loc 1 72 0
 173 0002 0128     		cmp	r0, #1
 174 0004 05D0     		beq	.L17
  73:main.c        ****         return turn_right;
  74:main.c        ****     }
  75:main.c        ****     if(event == line_on_left){
 175              		.loc 1 75 0
 176 0006 0228     		cmp	r0, #2
 177 0008 05D1     		bne	.L18
  76:main.c        ****         return turn_left;
 178              		.loc 1 76 0
 179 000a 0220     		movs	r0, #2
 180              	.LVL24:
 181 000c 7047     		bx	lr
 182              	.LVL25:
 183              	.L16:
  70:main.c        ****         return go_straight;
 184              		.loc 1 70 0
 185 000e 0120     		movs	r0, #1
 186              	.LVL26:
 187 0010 7047     		bx	lr
 188              	.LVL27:
 189              	.L17:
  73:main.c        ****         return turn_right;
 190              		.loc 1 73 0
 191 0012 0320     		movs	r0, #3
 192              	.LVL28:
 193 0014 7047     		bx	lr
 194              	.LVL29:
 195              	.L18:
  77:main.c        ****     }
  78:main.c        ****     else{
  79:main.c        ****         return idle_state;
 196              		.loc 1 79 0
 197 0016 0020     		movs	r0, #0
 198              	.LVL30:
  80:main.c        ****     }
  81:main.c        **** }
 199              		.loc 1 81 0
 200 0018 7047     		bx	lr
ARM GAS  C:\Users\guest\AppData\Local\Temp\ccKYxLKA.s 			page 6


 201              		.cfi_endproc
 202              	.LFE65:
 203              		.size	SetState, .-SetState
 204 001a 00BF     		.section	.text.isMyTimer,"ax",%progbits
 205              		.align	2
 206              		.global	isMyTimer
 207              		.thumb
 208              		.thumb_func
 209              		.type	isMyTimer, %function
 210              	isMyTimer:
 211              	.LFB66:
  82:main.c        **** 
  83:main.c        **** uint32_t lastTime=0;
  84:main.c        **** uint8_t isMyTimer(){
 212              		.loc 1 84 0
 213              		.cfi_startproc
 214              		@ args = 0, pretend = 0, frame = 0
 215              		@ frame_needed = 0, uses_anonymous_args = 0
 216 0000 08B5     		push	{r3, lr}
 217              		.cfi_def_cfa_offset 8
 218              		.cfi_offset 3, -8
 219              		.cfi_offset 14, -4
  85:main.c        ****     uint32_t now = CySysTickGetValue();
 220              		.loc 1 85 0
 221 0002 FFF7FEFF 		bl	CySysTickGetValue
 222              	.LVL31:
  86:main.c        ****     if(now-lastTime > 100){
 223              		.loc 1 86 0
 224 0006 044B     		ldr	r3, .L23
 225 0008 1B68     		ldr	r3, [r3]
 226 000a C01A     		subs	r0, r0, r3
 227              	.LVL32:
 228 000c 6428     		cmp	r0, #100
 229 000e 01D9     		bls	.L21
  87:main.c        ****         return 1;
 230              		.loc 1 87 0
 231 0010 0120     		movs	r0, #1
 232 0012 08BD     		pop	{r3, pc}
 233              	.L21:
  88:main.c        ****     }
  89:main.c        ****     return 0;
 234              		.loc 1 89 0
 235 0014 0020     		movs	r0, #0
  90:main.c        **** }
 236              		.loc 1 90 0
 237 0016 08BD     		pop	{r3, pc}
 238              	.L24:
 239              		.align	2
 240              	.L23:
 241 0018 00000000 		.word	.LANCHOR0
 242              		.cfi_endproc
 243              	.LFE66:
 244              		.size	isMyTimer, .-isMyTimer
 245              		.section	.text.isMyTimer2,"ax",%progbits
 246              		.align	2
 247              		.global	isMyTimer2
 248              		.thumb
ARM GAS  C:\Users\guest\AppData\Local\Temp\ccKYxLKA.s 			page 7


 249              		.thumb_func
 250              		.type	isMyTimer2, %function
 251              	isMyTimer2:
 252              	.LFB67:
  91:main.c        **** 
  92:main.c        **** uint8_t isMyTimer2(){
 253              		.loc 1 92 0
 254              		.cfi_startproc
 255              		@ args = 0, pretend = 0, frame = 0
 256              		@ frame_needed = 0, uses_anonymous_args = 0
 257 0000 08B5     		push	{r3, lr}
 258              		.cfi_def_cfa_offset 8
 259              		.cfi_offset 3, -8
 260              		.cfi_offset 14, -4
  93:main.c        ****     uint32_t now = CySysTickGetValue();
 261              		.loc 1 93 0
 262 0002 FFF7FEFF 		bl	CySysTickGetValue
 263              	.LVL33:
  94:main.c        ****     if(now-lastTime > 5000){
 264              		.loc 1 94 0
 265 0006 054B     		ldr	r3, .L29
 266 0008 1B68     		ldr	r3, [r3]
 267 000a C01A     		subs	r0, r0, r3
 268              	.LVL34:
 269 000c 41F28833 		movw	r3, #5000
 270 0010 9842     		cmp	r0, r3
 271 0012 01D9     		bls	.L27
  95:main.c        ****         return 1;
 272              		.loc 1 95 0
 273 0014 0120     		movs	r0, #1
 274 0016 08BD     		pop	{r3, pc}
 275              	.L27:
  96:main.c        ****     }
  97:main.c        ****     return 0;
 276              		.loc 1 97 0
 277 0018 0020     		movs	r0, #0
  98:main.c        **** }
 278              		.loc 1 98 0
 279 001a 08BD     		pop	{r3, pc}
 280              	.L30:
 281              		.align	2
 282              	.L29:
 283 001c 00000000 		.word	.LANCHOR0
 284              		.cfi_endproc
 285              	.LFE67:
 286              		.size	isMyTimer2, .-isMyTimer2
 287              		.section	.text.main,"ax",%progbits
 288              		.align	2
 289              		.global	main
 290              		.thumb
 291              		.thumb_func
 292              		.type	main, %function
 293              	main:
 294              	.LFB68:
  99:main.c        **** 
 100:main.c        **** int main(void){
 295              		.loc 1 100 0
ARM GAS  C:\Users\guest\AppData\Local\Temp\ccKYxLKA.s 			page 8


 296              		.cfi_startproc
 297              		@ args = 0, pretend = 0, frame = 0
 298              		@ frame_needed = 0, uses_anonymous_args = 0
 299 0000 38B5     		push	{r3, r4, r5, lr}
 300              		.cfi_def_cfa_offset 16
 301              		.cfi_offset 3, -16
 302              		.cfi_offset 4, -12
 303              		.cfi_offset 5, -8
 304              		.cfi_offset 14, -4
 101:main.c        ****     CyGlobalIntEnable; /* Enable global interrupts. */
 305              		.loc 1 101 0
 306              		.syntax unified
 307              	@ 101 "main.c" 1
 308 0002 62B6     		CPSIE   i
 309              	@ 0 "" 2
 310              	.LVL35:
 102:main.c        ****     /* Place your initialization/startup code here (e.g. MyInst_Start()) */
 103:main.c        ****     event cur_event = no_line;
 104:main.c        ****     state cur_state = idle_state;
 105:main.c        ****     int speed = 0;
 106:main.c        ****     LEFT_MOT_PWM_Start();
 311              		.loc 1 106 0
 312              		.thumb
 313              		.syntax unified
 314 0004 FFF7FEFF 		bl	LEFT_MOT_PWM_Start
 315              	.LVL36:
 107:main.c        ****     RIGHT_MOT_PWM_Start();
 316              		.loc 1 107 0
 317 0008 FFF7FEFF 		bl	RIGHT_MOT_PWM_Start
 318              	.LVL37:
 108:main.c        ****     ADC_SAR_1_Start();
 319              		.loc 1 108 0
 320 000c FFF7FEFF 		bl	ADC_SAR_1_Start
 321              	.LVL38:
 109:main.c        ****     LCD_Char_1_Start();
 322              		.loc 1 109 0
 323 0010 FFF7FEFF 		bl	LCD_Char_1_Start
 324              	.LVL39:
 110:main.c        ****     CySysTickStart();
 325              		.loc 1 110 0
 326 0014 FFF7FEFF 		bl	CySysTickStart
 327              	.LVL40:
 105:main.c        ****     LEFT_MOT_PWM_Start();
 328              		.loc 1 105 0
 329 0018 0024     		movs	r4, #0
 330              	.LVL41:
 331              	.L32:
 111:main.c        ****     for(;;){
 112:main.c        ****         if(isMyTimer2()){
 332              		.loc 1 112 0
 333 001a FFF7FEFF 		bl	isMyTimer2
 334              	.LVL42:
 335 001e E0B1     		cbz	r0, .L33
 113:main.c        ****         ADC_SAR_1_StartConvert();
 336              		.loc 1 113 0
 337 0020 FFF7FEFF 		bl	ADC_SAR_1_StartConvert
 338              	.LVL43:
ARM GAS  C:\Users\guest\AppData\Local\Temp\ccKYxLKA.s 			page 9


 114:main.c        ****         speed = ((ADC_SAR_1_GetResult16()/4095)*100);
 339              		.loc 1 114 0
 340 0024 FFF7FEFF 		bl	ADC_SAR_1_GetResult16
 341              	.LVL44:
 342 0028 254B     		ldr	r3, .L42
 343 002a 83FB0023 		smull	r2, r3, r3, r0
 344 002e 0344     		add	r3, r3, r0
 345 0030 C017     		asrs	r0, r0, #31
 346 0032 C0EBE320 		rsb	r0, r0, r3, asr #11
 347 0036 00B2     		sxth	r0, r0
 348 0038 6424     		movs	r4, #100
 349              	.LVL45:
 350 003a 04FB00F4 		mul	r4, r4, r0
 351              	.LVL46:
 115:main.c        ****         ADC_SAR_1_StopConvert();
 352              		.loc 1 115 0
 353 003e FFF7FEFF 		bl	ADC_SAR_1_StopConvert
 354              	.LVL47:
 116:main.c        ****         LCD_Char_1_ClearDisplay();
 355              		.loc 1 116 0
 356 0042 0120     		movs	r0, #1
 357 0044 FFF7FEFF 		bl	LCD_Char_1_WriteControl
 358              	.LVL48:
 117:main.c        ****         LCD_Char_1_PrintString("Speed: ");
 359              		.loc 1 117 0
 360 0048 1E48     		ldr	r0, .L42+4
 361 004a FFF7FEFF 		bl	LCD_Char_1_PrintString
 362              	.LVL49:
 118:main.c        ****         LCD_Char_1_PrintNumber(speed);
 363              		.loc 1 118 0
 364 004e A0B2     		uxth	r0, r4
 365 0050 FFF7FEFF 		bl	LCD_Char_1_PrintU32Number
 366              	.LVL50:
 119:main.c        ****         CyDelay(200);
 367              		.loc 1 119 0
 368 0054 C820     		movs	r0, #200
 369 0056 FFF7FEFF 		bl	CyDelay
 370              	.LVL51:
 371              	.L33:
 120:main.c        ****         }
 121:main.c        ****         if(isMyTimer()){
 372              		.loc 1 121 0
 373 005a FFF7FEFF 		bl	isMyTimer
 374              	.LVL52:
 375 005e 0028     		cmp	r0, #0
 376 0060 DBD0     		beq	.L32
 122:main.c        ****             cur_event = SetEvent(IR_L_Read(), IR_R_Read());     
 377              		.loc 1 122 0
 378 0062 FFF7FEFF 		bl	IR_L_Read
 379              	.LVL53:
 380 0066 05B2     		sxth	r5, r0
 381 0068 FFF7FEFF 		bl	IR_R_Read
 382              	.LVL54:
 383 006c 01B2     		sxth	r1, r0
 384 006e 2846     		mov	r0, r5
 385 0070 FFF7FEFF 		bl	SetEvent
 386              	.LVL55:
ARM GAS  C:\Users\guest\AppData\Local\Temp\ccKYxLKA.s 			page 10


 123:main.c        ****             cur_state = SetState(cur_event);
 387              		.loc 1 123 0
 388 0074 FFF7FEFF 		bl	SetState
 389              	.LVL56:
 124:main.c        ****             switch(cur_state){
 390              		.loc 1 124 0
 391 0078 0328     		cmp	r0, #3
 392 007a 1BD8     		bhi	.L35
 393 007c DFE800F0 		tbb	[pc, r0]
 394              	.L37:
 395 0080 15       		.byte	(.L36-.L37)/2
 396 0081 02       		.byte	(.L38-.L37)/2
 397 0082 07       		.byte	(.L39-.L37)/2
 398 0083 0E       		.byte	(.L40-.L37)/2
 399              		.p2align 1
 400              	.L38:
 125:main.c        ****                 case go_straight:
 126:main.c        ****                     SetSpeed(speed,speed);
 401              		.loc 1 126 0
 402 0084 20B2     		sxth	r0, r4
 403              	.LVL57:
 404 0086 0146     		mov	r1, r0
 405 0088 FFF7FEFF 		bl	SetSpeed
 406              	.LVL58:
 127:main.c        ****                     break;
 407              		.loc 1 127 0
 408 008c C5E7     		b	.L32
 409              	.LVL59:
 410              	.L39:
 128:main.c        ****                 case turn_left:
 129:main.c        ****                     SetSpeed(speed,-(speed/2));
 411              		.loc 1 129 0
 412 008e 6110     		asrs	r1, r4, #1
 413 0090 4942     		negs	r1, r1
 414 0092 09B2     		sxth	r1, r1
 415 0094 20B2     		sxth	r0, r4
 416              	.LVL60:
 417 0096 FFF7FEFF 		bl	SetSpeed
 418              	.LVL61:
 130:main.c        ****                     break;
 419              		.loc 1 130 0
 420 009a BEE7     		b	.L32
 421              	.LVL62:
 422              	.L40:
 131:main.c        ****                 case turn_right:
 132:main.c        ****                     SetSpeed(-(speed/2),speed);
 423              		.loc 1 132 0
 424 009c 6010     		asrs	r0, r4, #1
 425              	.LVL63:
 426 009e 4042     		negs	r0, r0
 427 00a0 21B2     		sxth	r1, r4
 428 00a2 00B2     		sxth	r0, r0
 429 00a4 FFF7FEFF 		bl	SetSpeed
 430              	.LVL64:
 133:main.c        ****                     break;
 431              		.loc 1 133 0
 432 00a8 B7E7     		b	.L32
ARM GAS  C:\Users\guest\AppData\Local\Temp\ccKYxLKA.s 			page 11


 433              	.LVL65:
 434              	.L36:
 134:main.c        ****                 case idle_state:
 135:main.c        ****                     SetSpeed(0,0);
 435              		.loc 1 135 0
 436 00aa 0021     		movs	r1, #0
 437 00ac 0846     		mov	r0, r1
 438              	.LVL66:
 439 00ae FFF7FEFF 		bl	SetSpeed
 440              	.LVL67:
 136:main.c        ****                     break;
 441              		.loc 1 136 0
 442 00b2 B2E7     		b	.L32
 443              	.LVL68:
 444              	.L35:
 137:main.c        ****                 default:
 138:main.c        ****                     SetSpeed(0,0);
 445              		.loc 1 138 0
 446 00b4 0021     		movs	r1, #0
 447 00b6 0846     		mov	r0, r1
 448              	.LVL69:
 449 00b8 FFF7FEFF 		bl	SetSpeed
 450              	.LVL70:
 139:main.c        ****                     break;
 451              		.loc 1 139 0
 452 00bc ADE7     		b	.L32
 453              	.L43:
 454 00be 00BF     		.align	2
 455              	.L42:
 456 00c0 81000880 		.word	-2146959231
 457 00c4 00000000 		.word	.LC0
 458              		.cfi_endproc
 459              	.LFE68:
 460              		.size	main, .-main
 461              		.global	lastTime
 462              		.section	.rodata.str1.4,"aMS",%progbits,1
 463              		.align	2
 464              	.LC0:
 465 0000 53706565 		.ascii	"Speed: \000"
 465      643A2000 
 466              		.bss
 467              		.align	2
 468              		.set	.LANCHOR0,. + 0
 469              		.type	lastTime, %object
 470              		.size	lastTime, 4
 471              	lastTime:
 472 0000 00000000 		.space	4
 473              		.text
 474              	.Letext0:
 475              		.file 2 "c:\\program files (x86)\\cypress\\psoc creator\\4.3\\psoc creator\\import\\gnu\\arm\\5.4.
 476              		.file 3 "c:\\program files (x86)\\cypress\\psoc creator\\4.3\\psoc creator\\import\\gnu\\arm\\5.4.
 477              		.file 4 "Generated_Source\\PSoC5/cytypes.h"
 478              		.file 5 "Generated_Source\\PSoC5/core_cm3.h"
 479              		.file 6 "Generated_Source\\PSoC5/LEFT_MOT_PWM.h"
 480              		.file 7 "Generated_Source\\PSoC5/LEFT_MOT_DIR.h"
 481              		.file 8 "Generated_Source\\PSoC5/RIGHT_MOT_PWM.h"
 482              		.file 9 "Generated_Source\\PSoC5/RIGHT_MOT_DIR.h"
ARM GAS  C:\Users\guest\AppData\Local\Temp\ccKYxLKA.s 			page 12


 483              		.file 10 "Generated_Source\\PSoC5/Reg_PWM.h"
 484              		.file 11 "Generated_Source\\PSoC5/CyLib.h"
 485              		.file 12 "Generated_Source\\PSoC5/ADC_SAR_1.h"
 486              		.file 13 "Generated_Source\\PSoC5/LCD_Char_1.h"
 487              		.file 14 "Generated_Source\\PSoC5/IR_L.h"
 488              		.file 15 "Generated_Source\\PSoC5/IR_R.h"